target datalayout = "e-m:e-p270:32:32-p271:32:32-p272:64:64-i64:64-i128:128-f80:128-n8:16:32:64-S128"
target triple = "x86_64-unknown-linux-gnu"

%class.btOverlappingPairCache = type { %class.btOverlappingPairCallback }
%class.btOverlappingPairCallback = type { ptr }
%class.btAlignedObjectArray = type <{ %class.btAlignedAllocator, [3 x i8], i32, i32, [4 x i8], ptr, i8, [7 x i8] }>
%class.btAlignedAllocator = type { i8 }
%struct.btBroadphasePair = type { ptr, ptr, ptr, %union.anon.4 }
%union.anon.4 = type { ptr }
%class.btSortedOverlappingPairCache = type { %class.btOverlappingPairCache, %class.btAlignedObjectArray, i8, i8, ptr, ptr }

; Function Attrs: mustprogress nounwind uwtable
define linkonce_odr dso_local void @_ZN20btAlignedObjectArrayI16btBroadphasePairE8pop_backEv(ptr noundef nonnull align 8 dereferenceable(25) %this) #1 comdat align 2 {
entry:
  %this.addr = alloca ptr, align 8
  store ptr %this, ptr %this.addr, align 8
  %this1 = load ptr, ptr %this.addr, align 8
  %m_size = getelementptr inbounds %class.btAlignedObjectArray, ptr %this1, i32 0, i32 2
  %0 = load i32, ptr %m_size, align 4
  %dec = add nsw i32 %0, -1
  store i32 %dec, ptr %m_size, align 4
  ret void
}

; Function Attrs: mustprogress nounwind uwtable
define linkonce_odr dso_local void @_ZN20btAlignedObjectArrayI16btBroadphasePairE4swapEii(ptr noundef nonnull align 8 dereferenceable(25) %this, i32 noundef %index0, i32 noundef %index1) #1 comdat align 2 {
entry:
  %this.addr = alloca ptr, align 8
  %index0.addr = alloca i32, align 4
  %index1.addr = alloca i32, align 4
  %temp = alloca %struct.btBroadphasePair, align 8
  store ptr %this, ptr %this.addr, align 8
  store i32 %index0, ptr %index0.addr, align 4
  store i32 %index1, ptr %index1.addr, align 4
  %this1 = load ptr, ptr %this.addr, align 8
  %m_data = getelementptr inbounds %class.btAlignedObjectArray, ptr %this1, i32 0, i32 5
  %0 = load ptr, ptr %m_data, align 8
  %1 = load i32, ptr %index0.addr, align 4
  %idxprom = sext i32 %1 to i64
  %arrayidx = getelementptr inbounds %struct.btBroadphasePair, ptr %0, i64 %idxprom
  call void @llvm.memcpy.p0.p0.i64(ptr align 8 %temp, ptr align 8 %arrayidx, i64 32, i1 false)
  %m_data2 = getelementptr inbounds %class.btAlignedObjectArray, ptr %this1, i32 0, i32 5
  %2 = load ptr, ptr %m_data2, align 8
  %3 = load i32, ptr %index1.addr, align 4
  %idxprom3 = sext i32 %3 to i64
  %arrayidx4 = getelementptr inbounds %struct.btBroadphasePair, ptr %2, i64 %idxprom3
  %m_data5 = getelementptr inbounds %class.btAlignedObjectArray, ptr %this1, i32 0, i32 5
  %4 = load ptr, ptr %m_data5, align 8
  %5 = load i32, ptr %index0.addr, align 4
  %idxprom6 = sext i32 %5 to i64
  %arrayidx7 = getelementptr inbounds %struct.btBroadphasePair, ptr %4, i64 %idxprom6
  call void @llvm.memcpy.p0.p0.i64(ptr align 8 %arrayidx7, ptr align 8 %arrayidx4, i64 32, i1 false)
  %m_data8 = getelementptr inbounds %class.btAlignedObjectArray, ptr %this1, i32 0, i32 5
  %6 = load ptr, ptr %m_data8, align 8
  %7 = load i32, ptr %index1.addr, align 4
  %idxprom9 = sext i32 %7 to i64
  %arrayidx10 = getelementptr inbounds %struct.btBroadphasePair, ptr %6, i64 %idxprom9
  call void @llvm.memcpy.p0.p0.i64(ptr align 8 %arrayidx10, ptr align 8 %temp, i64 32, i1 false)
  ret void
}

; Function Attrs: mustprogress nounwind uwtable
define linkonce_odr dso_local noundef nonnull align 8 dereferenceable(32) ptr @_ZN20btAlignedObjectArrayI16btBroadphasePairEixEi(ptr noundef nonnull align 8 dereferenceable(25) %this, i32 noundef %n) #1 comdat align 2 {
entry:
  %this.addr = alloca ptr, align 8
  %n.addr = alloca i32, align 4
  store ptr %this, ptr %this.addr, align 8
  store i32 %n, ptr %n.addr, align 4
  %this1 = load ptr, ptr %this.addr, align 8
  %m_data = getelementptr inbounds %class.btAlignedObjectArray, ptr %this1, i32 0, i32 5
  %0 = load ptr, ptr %m_data, align 8
  %1 = load i32, ptr %n.addr, align 4
  %idxprom = sext i32 %1 to i64
  %arrayidx = getelementptr inbounds %struct.btBroadphasePair, ptr %0, i64 %idxprom
  ret ptr %arrayidx
}

; Function Attrs: mustprogress nounwind uwtable
define linkonce_odr dso_local noundef i32 @_ZNK20btAlignedObjectArrayI16btBroadphasePairE4sizeEv(ptr noundef nonnull align 8 dereferenceable(25) %this) #1 comdat align 2 {
entry:
  %this.addr = alloca ptr, align 8
  store ptr %this, ptr %this.addr, align 8
  %this1 = load ptr, ptr %this.addr, align 8
  %m_size = getelementptr inbounds %class.btAlignedObjectArray, ptr %this1, i32 0, i32 2
  %0 = load i32, ptr %m_size, align 4
  ret i32 %0
}

; Function Attrs: mustprogress uwtable
define dso_local void @_ZN28btSortedOverlappingPairCache26processAllOverlappingPairsEP17btOverlapCallbackP12btDispatcher(ptr noundef nonnull align 8 dereferenceable(64) %this, ptr noundef %callback, ptr noundef %dispatcher) unnamed_addr #2 align 2 {
entry:
  %this.addr = alloca ptr, align 8
  %callback.addr = alloca ptr, align 8
  %dispatcher.addr = alloca ptr, align 8
  %i = alloca i32, align 4
  %pair = alloca ptr, align 8
  store ptr %this, ptr %this.addr, align 8
  store ptr %callback, ptr %callback.addr, align 8
  store ptr %dispatcher, ptr %dispatcher.addr, align 8
  %this1 = load ptr, ptr %this.addr, align 8
  store i32 0, ptr %i, align 4
  br label %for.cond

for.cond:                                         ; preds = %if.end, %entry
  %0 = load i32, ptr %i, align 4
  %m_overlappingPairArray = getelementptr inbounds %class.btSortedOverlappingPairCache, ptr %this1, i32 0, i32 1
  %call = call noundef i32 @_ZNK20btAlignedObjectArrayI16btBroadphasePairE4sizeEv(ptr noundef nonnull align 8 dereferenceable(25) %m_overlappingPairArray)
  %cmp = icmp slt i32 %0, %call
  br i1 %cmp, label %for.body, label %for.end

for.body:                                         ; preds = %for.cond
  %m_overlappingPairArray2 = getelementptr inbounds %class.btSortedOverlappingPairCache, ptr %this1, i32 0, i32 1
  %1 = load i32, ptr %i, align 4
  %call3 = call noundef nonnull align 8 dereferenceable(32) ptr @_ZN20btAlignedObjectArrayI16btBroadphasePairEixEi(ptr noundef nonnull align 8 dereferenceable(25) %m_overlappingPairArray2, i32 noundef %1)
  store ptr %call3, ptr %pair, align 8
  %2 = load ptr, ptr %callback.addr, align 8
  %3 = load ptr, ptr %pair, align 8
  %vtable = load ptr, ptr %2, align 8
  %vfn = getelementptr inbounds ptr, ptr %vtable, i64 2
  %4 = load ptr, ptr %vfn, align 8
  %call4 = call noundef zeroext i1 %4(ptr noundef nonnull align 8 dereferenceable(8) %2, ptr noundef nonnull align 8 dereferenceable(32) %3)
  br i1 %call4, label %if.then, label %if.else

if.then:                                          ; preds = %for.body
  %5 = load ptr, ptr %pair, align 8
  %6 = load ptr, ptr %dispatcher.addr, align 8
  %vtable5 = load ptr, ptr %this1, align 8
  %vfn6 = getelementptr inbounds ptr, ptr %vtable5, i64 8
  %7 = load ptr, ptr %vfn6, align 8
  call void %7(ptr noundef nonnull align 8 dereferenceable(64) %this1, ptr noundef nonnull align 8 dereferenceable(32) %5, ptr noundef %6)
  %8 = load ptr, ptr %pair, align 8
  %m_pProxy0 = getelementptr inbounds %struct.btBroadphasePair, ptr %8, i32 0, i32 0
  store ptr null, ptr %m_pProxy0, align 8
  %9 = load ptr, ptr %pair, align 8
  %m_pProxy1 = getelementptr inbounds %struct.btBroadphasePair, ptr %9, i32 0, i32 1
  store ptr null, ptr %m_pProxy1, align 8
  %m_overlappingPairArray7 = getelementptr inbounds %class.btSortedOverlappingPairCache, ptr %this1, i32 0, i32 1
  %10 = load i32, ptr %i, align 4
  %m_overlappingPairArray8 = getelementptr inbounds %class.btSortedOverlappingPairCache, ptr %this1, i32 0, i32 1
  %call9 = call noundef i32 @_ZNK20btAlignedObjectArrayI16btBroadphasePairE4sizeEv(ptr noundef nonnull align 8 dereferenceable(25) %m_overlappingPairArray8)
  %sub = sub nsw i32 %call9, 1
  call void @_ZN20btAlignedObjectArrayI16btBroadphasePairE4swapEii(ptr noundef nonnull align 8 dereferenceable(25) %m_overlappingPairArray7, i32 noundef %10, i32 noundef %sub)
  %m_overlappingPairArray10 = getelementptr inbounds %class.btSortedOverlappingPairCache, ptr %this1, i32 0, i32 1
  call void @_ZN20btAlignedObjectArrayI16btBroadphasePairE8pop_backEv(ptr noundef nonnull align 8 dereferenceable(25) %m_overlappingPairArray10)
  br label %if.end

if.else:                                          ; preds = %for.body
  %11 = load i32, ptr %i, align 4
  %inc = add nsw i32 %11, 1
  store i32 %inc, ptr %i, align 4
  br label %if.end

if.end:                                           ; preds = %if.else, %if.then
  br label %for.cond, !llvm.loop !25

for.end:                                          ; preds = %for.cond
  ret void
}