; Function Attrs: mustprogress uwtable
define dso_local void @_ZN28btSortedOverlappingPairCache26processAllOverlappingPairsEP17btOverlapCallbackP12btDispatcher(ptr noundef nonnull align 8 dereferenceable(64) %this, ptr noundef %callback, ptr noundef %dispatcher) unnamed_addr #0 align 2 {
entry:
  %temp.i = alloca %struct.btBroadphasePair, align 8
  %m_size.i = getelementptr inbounds i8, ptr %this, i64 12
  %0 = load i32, ptr %m_size.i, align 4
  %cmp12 = icmp sgt i32 %0, 0
  br i1 %cmp12, label %for.body.lr.ph, label %for.end

for.body.lr.ph:                                   ; preds = %entry
  %m_data.i = getelementptr inbounds i8, ptr %this, i64 24
  br label %for.body

for.body:                                         ; preds = %for.body.lr.ph, %if.end
  %i.013 = phi i32 [ 0, %for.body.lr.ph ], [ %i.1, %if.end ]
  %1 = load ptr, ptr %m_data.i, align 8
  %idxprom.i = sext i32 %i.013 to i64
  %arrayidx.i = getelementptr inbounds %struct.btBroadphasePair, ptr %1, i64 %idxprom.i
  %vtable = load ptr, ptr %callback, align 8
  %vfn = getelementptr inbounds i8, ptr %vtable, i64 16
  %2 = load ptr, ptr %vfn, align 8
  %call4 = tail call noundef zeroext i1 %2(ptr noundef nonnull align 8 dereferenceable(8) %callback, ptr noundef nonnull align 8 dereferenceable(32) %arrayidx.i)
  br i1 %call4, label %if.then, label %if.else

if.then:                                          ; preds = %for.body
  %vtable5 = load ptr, ptr %this, align 8
  %vfn6 = getelementptr inbounds i8, ptr %vtable5, i64 64
  %3 = load ptr, ptr %vfn6, align 8
  tail call void %3(ptr noundef nonnull align 8 dereferenceable(64) %this, ptr noundef nonnull align 8 dereferenceable(32) %arrayidx.i, ptr noundef %dispatcher)
  tail call void @llvm.memset.p0.i64(ptr noundef nonnull align 8 dereferenceable(16) %arrayidx.i, i8 0, i64 16, i1 false)
  %4 = load i32, ptr %m_size.i, align 4
  %sub = add nsw i32 %4, -1
  call void @llvm.lifetime.start.p0(i64 32, ptr nonnull %temp.i)
  %5 = load ptr, ptr %m_data.i, align 8
  %arrayidx.i10 = getelementptr inbounds %struct.btBroadphasePair, ptr %5, i64 %idxprom.i
  call void @llvm.memcpy.p0.p0.i64(ptr noundef nonnull align 8 dereferenceable(32) %temp.i, ptr noundef nonnull align 8 dereferenceable(32) %arrayidx.i10, i64 32, i1 false)
  %idxprom3.i = sext i32 %sub to i64
  %arrayidx4.i = getelementptr inbounds %struct.btBroadphasePair, ptr %5, i64 %idxprom3.i
  tail call void @llvm.memcpy.p0.p0.i64(ptr noundef nonnull align 8 dereferenceable(32) %arrayidx.i10, ptr noundef nonnull align 8 dereferenceable(32) %arrayidx4.i, i64 32, i1 false)
  %6 = load ptr, ptr %m_data.i, align 8
  %arrayidx10.i = getelementptr inbounds %struct.btBroadphasePair, ptr %6, i64 %idxprom3.i
  call void @llvm.memcpy.p0.p0.i64(ptr noundef nonnull align 8 dereferenceable(32) %arrayidx10.i, ptr noundef nonnull align 8 dereferenceable(32) %temp.i, i64 32, i1 false)
  call void @llvm.lifetime.end.p0(i64 32, ptr nonnull %temp.i)
  %7 = load i32, ptr %m_size.i, align 4
  %dec.i = add nsw i32 %7, -1
  store i32 %dec.i, ptr %m_size.i, align 4
  br label %if.end

if.else:                                          ; preds = %for.body
  %inc = add nsw i32 %i.013, 1
  %.pre = load i32, ptr %m_size.i, align 4
  br label %if.end

if.end:                                           ; preds = %if.else, %if.then
  %8 = phi i32 [ %dec.i, %if.then ], [ %.pre, %if.else ]
  %i.1 = phi i32 [ %i.013, %if.then ], [ %inc, %if.else ]
  %cmp = icmp slt i32 %i.1, %8
  br i1 %cmp, label %for.body, label %for.end, !llvm.loop !26

for.end:                                          ; preds = %if.end, %entry
  ret void
}